; Function Attrs: mustprogress nounwind uwtable
define hidden void @_ZN17opencv_tensorflow9AttrValue12clear_tensorEv(ptr noundef nonnull align 8 captures(none) dereferenceable(32) %0) local_unnamed_addr #5 align 2 {
  %2 = getelementptr inbounds nuw i8, ptr %0, i64 28
  %3 = load i32, ptr %2, align 4, !tbaa !79
  %4 = icmp eq i32 %3, 8
  br i1 %4, label %5, label %20

5:                                                ; preds = %1
  %6 = getelementptr inbounds nuw i8, ptr %0, i64 8
  %7 = load i64, ptr %6, align 8, !tbaa !16
  %8 = and i64 %7, 1
  %.not.i = icmp eq i64 %8, 0
  %9 = and i64 %7, -4
  %10 = inttoptr i64 %9 to ptr
  br i1 %.not.i, label %_ZNK6google8protobuf11MessageLite21GetArenaForAllocationEv.exit, label %11, !prof !36

11:                                               ; preds = %5
  %12 = load ptr, ptr %10, align 8, !tbaa !37
  br label %_ZNK6google8protobuf11MessageLite21GetArenaForAllocationEv.exit

_ZNK6google8protobuf11MessageLite21GetArenaForAllocationEv.exit: ; preds = %5, %11
  %.0.i.i = phi ptr [ %12, %11 ], [ %10, %5 ]
  %13 = icmp eq ptr %.0.i.i, null
  br i1 %13, label %14, label %19

14:                                               ; preds = %_ZNK6google8protobuf11MessageLite21GetArenaForAllocationEv.exit
  %15 = getelementptr inbounds nuw i8, ptr %0, i64 16
  %16 = load ptr, ptr %15, align 8, !tbaa !49
  %17 = icmp eq ptr %16, null
  br i1 %17, label %19, label %18

18:                                               ; preds = %14
  tail call void @_ZN17opencv_tensorflow11TensorProtoD1Ev(ptr noundef nonnull align 8 dereferenceable(224) %16) #30
  tail call void @_ZdlPv(ptr noundef nonnull %16) #31
  br label %19

19:                                               ; preds = %14, %18, %_ZNK6google8protobuf11MessageLite21GetArenaForAllocationEv.exit
  store i32 0, ptr %2, align 4, !tbaa !79
  br label %20

20:                                               ; preds = %19, %1
  ret void
}